target datalayout = "e-m:e-p270:32:32-p271:32:32-p272:64:64-i64:64-i128:128-f80:128-n8:16:32:64-S128"
target triple = "x86_64-unknown-linux-gnu"

%"class.icu_75::CurrencyUnit" = type { %"class.icu_75::MeasureUnit.base", [4 x i16], [4 x i8] }
%"class.icu_75::MeasureUnit.base" = type <{ %"class.icu_75::UObject", ptr, i16, i8 }>
%"class.icu_75::UObject" = type { ptr }
%"class.icu_75::UnicodeString" = type { %"class.icu_75::Replaceable", %"union.icu_75::UnicodeString::StackBufferOrFields" }
%"class.icu_75::Replaceable" = type { %"class.icu_75::UObject" }
%"union.icu_75::UnicodeString::StackBufferOrFields" = type { %struct.anon.0, [32 x i8] }
%struct.anon.0 = type { i16, i32, i32, ptr }
%"class.icu_75::Locale" = type <{ %"class.icu_75::UObject", [12 x i8], [6 x i8], [4 x i8], [2 x i8], i32, [4 x i8], ptr, [157 x i8], [3 x i8], ptr, i8, [7 x i8] }>
%"class.icu_75::ConstChar16Ptr" = type { ptr }
%"struct.icu_75::number::impl::DecimalFormatProperties" = type <{ %"class.icu_75::number::impl::NullableValue", %"class.icu_75::number::impl::NullableValue.1", %"class.icu_75::number::impl::CurrencyPluralInfoWrapper", %"class.icu_75::number::impl::NullableValue.2", i8, i8, i8, i8, i8, [3 x i8], i32, i32, i8, [3 x i8], i32, i32, i32, i32, i32, i32, i32, i32, i32, i32, i32, %"class.icu_75::UnicodeString", %"class.icu_75::UnicodeString", %"class.icu_75::UnicodeString", %"class.icu_75::UnicodeString", %"class.icu_75::number::impl::NullableValue.3", %"class.icu_75::UnicodeString", i8, i8, [2 x i8], %"class.icu_75::number::impl::NullableValue.4", i8, i8, [2 x i8], i32, [4 x i8], %"class.icu_75::UnicodeString", %"class.icu_75::UnicodeString", %"class.icu_75::UnicodeString", %"class.icu_75::UnicodeString", double, %"class.icu_75::number::impl::NullableValue.5", i32, i8, [3 x i8] }>
%"class.icu_75::number::impl::NullableValue" = type { i8, i32 }
%"class.icu_75::number::impl::NullableValue.1" = type { i8, [7 x i8], %"class.icu_75::CurrencyUnit" }
%"class.icu_75::number::impl::CurrencyPluralInfoWrapper" = type { %"class.icu_75::LocalPointer" }
%"class.icu_75::LocalPointer" = type { %"class.icu_75::LocalPointerBase" }
%"class.icu_75::LocalPointerBase" = type { ptr }
%"class.icu_75::number::impl::NullableValue.2" = type { i8, i32 }
%"class.icu_75::number::impl::NullableValue.3" = type { i8, i32 }
%"class.icu_75::number::impl::NullableValue.4" = type { i8, i32 }
%"class.icu_75::number::impl::NullableValue.5" = type { i8, i32 }

; Function Attrs: mustprogress nounwind uwtable
define linkonce_odr void @_ZN6icu_7514ConstChar16PtrD2Ev(ptr noundef nonnull align 8 dereferenceable(8) %this) unnamed_addr #0 comdat align 2 {
entry:
  %this.addr = alloca ptr, align 8
  store ptr %this, ptr %this.addr, align 8
  %this1 = load ptr, ptr %this.addr, align 8
  %p_ = getelementptr inbounds %"class.icu_75::ConstChar16Ptr", ptr %this1, i32 0, i32 0
  %0 = load ptr, ptr %p_, align 8
  call void asm sideeffect "", "rm,~{memory},~{dirflag},~{fpsr},~{flags}"(ptr %0) #8, !srcloc !4
  ret void
}

; Function Attrs: mustprogress nounwind uwtable
define linkonce_odr void @_ZN6icu_7514ConstChar16PtrC2EPKDs(ptr noundef nonnull align 8 dereferenceable(8) %this, ptr noundef %p) unnamed_addr #0 comdat align 2 {
entry:
  %this.addr = alloca ptr, align 8
  %p.addr = alloca ptr, align 8
  store ptr %this, ptr %this.addr, align 8
  store ptr %p, ptr %p.addr, align 8
  %this1 = load ptr, ptr %this.addr, align 8
  %p_ = getelementptr inbounds %"class.icu_75::ConstChar16Ptr", ptr %this1, i32 0, i32 0
  %0 = load ptr, ptr %p.addr, align 8
  store ptr %0, ptr %p_, align 8
  ret void
}

; Function Attrs: mustprogress nounwind uwtable
define internal noundef signext i8 @_ZL9U_SUCCESS10UErrorCode(i32 noundef %code) #0 {
entry:
  %code.addr = alloca i32, align 4
  store i32 %code, ptr %code.addr, align 4
  %0 = load i32, ptr %code.addr, align 4
  %cmp = icmp sle i32 %0, 0
  %conv = zext i1 %cmp to i8
  ret i8 %conv
}

; Function Attrs: mustprogress nounwind uwtable
define linkonce_odr noundef ptr @_ZNK6icu_756Locale7getNameEv(ptr noundef nonnull align 8 dereferenceable(217) %this) #0 comdat align 2 {
entry:
  %this.addr = alloca ptr, align 8
  store ptr %this, ptr %this.addr, align 8
  %this1 = load ptr, ptr %this.addr, align 8
  %fullName = getelementptr inbounds %"class.icu_75::Locale", ptr %this1, i32 0, i32 7
  %0 = load ptr, ptr %fullName, align 8
  ret ptr %0
}

; Function Attrs: mustprogress uwtable
define linkonce_odr void @_ZNK6icu_756number4impl13NullableValueINS_12CurrencyUnitEE10getNoErrorEv(ptr noalias sret(%"class.icu_75::CurrencyUnit") align 8 %agg.result, ptr noundef nonnull align 8 dereferenceable(40) %this) #1 comdat align 2 {
entry:
  %result.ptr = alloca ptr, align 8
  %this.addr = alloca ptr, align 8
  store ptr %agg.result, ptr %result.ptr, align 8
  store ptr %this, ptr %this.addr, align 8
  %this1 = load ptr, ptr %this.addr, align 8
  %fValue = getelementptr inbounds %"class.icu_75::number::impl::NullableValue.1", ptr %this1, i32 0, i32 2
  call void @_ZN6icu_7512CurrencyUnitC1ERKS0_(ptr noundef nonnull align 8 dereferenceable(28) %agg.result, ptr noundef nonnull align 8 dereferenceable(28) %fValue)
  ret void
}

; Function Attrs: mustprogress nounwind uwtable
define linkonce_odr noundef zeroext i1 @_ZNK6icu_756number4impl13NullableValueINS_12CurrencyUnitEE6isNullEv(ptr noundef nonnull align 8 dereferenceable(40) %this) #0 comdat align 2 {
entry:
  %this.addr = alloca ptr, align 8
  store ptr %this, ptr %this.addr, align 8
  %this1 = load ptr, ptr %this.addr, align 8
  %fNull = getelementptr inbounds %"class.icu_75::number::impl::NullableValue.1", ptr %this1, i32 0, i32 0
  %0 = load i8, ptr %fNull, align 8
  %tobool = trunc i8 %0 to i1
  ret i1 %tobool
}

; Function Attrs: mustprogress uwtable
define void @_ZN6icu_756number4impl15resolveCurrencyERKNS1_23DecimalFormatPropertiesERKNS_6LocaleER10UErrorCode(ptr noalias sret(%"class.icu_75::CurrencyUnit") align 8 %agg.result, ptr noundef nonnull align 8 dereferenceable(757) %properties, ptr noundef nonnull align 8 dereferenceable(217) %locale, ptr noundef nonnull align 4 dereferenceable(4) %status) #1 personality ptr @__gxx_personality_v0 {
entry:
  %result.ptr = alloca ptr, align 8
  %properties.addr = alloca ptr, align 8
  %locale.addr = alloca ptr, align 8
  %status.addr = alloca ptr, align 8
  %localStatus = alloca i32, align 4
  %buf = alloca [4 x i16], align 2
  %agg.tmp = alloca %"class.icu_75::ConstChar16Ptr", align 8
  %exn.slot = alloca ptr, align 8
  %ehselector.slot = alloca i32, align 4
  store ptr %agg.result, ptr %result.ptr, align 8
  store ptr %properties, ptr %properties.addr, align 8
  store ptr %locale, ptr %locale.addr, align 8
  store ptr %status, ptr %status.addr, align 8
  %0 = load ptr, ptr %properties.addr, align 8
  %currency = getelementptr inbounds %"struct.icu_75::number::impl::DecimalFormatProperties", ptr %0, i32 0, i32 1
  %call = call noundef zeroext i1 @_ZNK6icu_756number4impl13NullableValueINS_12CurrencyUnitEE6isNullEv(ptr noundef nonnull align 8 dereferenceable(40) %currency)
  br i1 %call, label %if.else, label %if.then

if.then:                                          ; preds = %entry
  %1 = load ptr, ptr %properties.addr, align 8
  %currency1 = getelementptr inbounds %"struct.icu_75::number::impl::DecimalFormatProperties", ptr %1, i32 0, i32 1
  call void @_ZNK6icu_756number4impl13NullableValueINS_12CurrencyUnitEE10getNoErrorEv(ptr sret(%"class.icu_75::CurrencyUnit") align 8 %agg.result, ptr noundef nonnull align 8 dereferenceable(40) %currency1)
  br label %return

if.else:                                          ; preds = %entry
  store i32 0, ptr %localStatus, align 4
  call void @llvm.memset.p0.i64(ptr align 2 %buf, i8 0, i64 8, i1 false)
  %2 = load ptr, ptr %locale.addr, align 8
  %call2 = call noundef ptr @_ZNK6icu_756Locale7getNameEv(ptr noundef nonnull align 8 dereferenceable(217) %2)
  %arraydecay = getelementptr inbounds [4 x i16], ptr %buf, i64 0, i64 0
  %call3 = call i32 @ucurr_forLocale_75(ptr noundef %call2, ptr noundef %arraydecay, i32 noundef 4, ptr noundef %localStatus)
  %3 = load i32, ptr %localStatus, align 4
  %call4 = call noundef signext i8 @_ZL9U_SUCCESS10UErrorCode(i32 noundef %3)
  %tobool = icmp ne i8 %call4, 0
  br i1 %tobool, label %if.then5, label %if.else7

if.then5:                                         ; preds = %if.else
  %arraydecay6 = getelementptr inbounds [4 x i16], ptr %buf, i64 0, i64 0
  call void @_ZN6icu_7514ConstChar16PtrC2EPKDs(ptr noundef nonnull align 8 dereferenceable(8) %agg.tmp, ptr noundef %arraydecay6)
  %4 = load ptr, ptr %status.addr, align 8
  invoke void @_ZN6icu_7512CurrencyUnitC1ENS_14ConstChar16PtrER10UErrorCode(ptr noundef nonnull align 8 dereferenceable(28) %agg.result, ptr noundef %agg.tmp, ptr noundef nonnull align 4 dereferenceable(4) %4)
          to label %invoke.cont unwind label %lpad

invoke.cont:                                      ; preds = %if.then5
  call void @_ZN6icu_7514ConstChar16PtrD2Ev(ptr noundef nonnull align 8 dereferenceable(8) %agg.tmp) #8
  br label %return

lpad:                                             ; preds = %if.then5
  %5 = landingpad { ptr, i32 }
          cleanup
  %6 = extractvalue { ptr, i32 } %5, 0
  store ptr %6, ptr %exn.slot, align 8
  %7 = extractvalue { ptr, i32 } %5, 1
  store i32 %7, ptr %ehselector.slot, align 4
  call void @_ZN6icu_7514ConstChar16PtrD2Ev(ptr noundef nonnull align 8 dereferenceable(8) %agg.tmp) #8
  br label %eh.resume

if.else7:                                         ; preds = %if.else
  call void @_ZN6icu_7512CurrencyUnitC1Ev(ptr noundef nonnull align 8 dereferenceable(28) %agg.result)
  br label %return

return:                                           ; preds = %if.else7, %invoke.cont, %if.then
  ret void

eh.resume:                                        ; preds = %lpad
  %exn = load ptr, ptr %exn.slot, align 8
  %sel = load i32, ptr %ehselector.slot, align 4
  %lpad.val = insertvalue { ptr, i32 } poison, ptr %exn, 0
  %lpad.val8 = insertvalue { ptr, i32 } %lpad.val, i32 %sel, 1
  resume { ptr, i32 } %lpad.val8
}