; Function Attrs: mustprogress uwtable
define void @_ZN6icu_756number4impl15resolveCurrencyERKNS1_23DecimalFormatPropertiesERKNS_6LocaleER10UErrorCode(ptr noalias sret(%"class.icu_75::CurrencyUnit") align 8 %agg.result, ptr noundef nonnull align 8 dereferenceable(757) %properties, ptr nocapture noundef nonnull readonly align 8 dereferenceable(217) %locale, ptr noundef nonnull align 4 dereferenceable(4) %status) local_unnamed_addr #1 personality ptr @__gxx_personality_v0 {
entry:
  %localStatus = alloca i32, align 4
  %buf = alloca [4 x i16], align 8
  %agg.tmp = alloca %"class.icu_75::ConstChar16Ptr", align 8
  %currency = getelementptr inbounds i8, ptr %properties, i64 8
  %0 = load i8, ptr %currency, align 8
  %1 = and i8 %0, 1
  %tobool.i.not = icmp eq i8 %1, 0
  br i1 %tobool.i.not, label %if.then, label %if.else

if.then:                                          ; preds = %entry
  %fValue.i = getelementptr inbounds i8, ptr %properties, i64 16
  tail call void @_ZN6icu_7512CurrencyUnitC1ERKS0_(ptr noundef nonnull align 8 dereferenceable(28) %agg.result, ptr noundef nonnull align 8 dereferenceable(28) %fValue.i)
  br label %return

if.else:                                          ; preds = %entry
  store i32 0, ptr %localStatus, align 4
  store i64 0, ptr %buf, align 8
  %fullName.i = getelementptr inbounds i8, ptr %locale, i64 40
  %2 = load ptr, ptr %fullName.i, align 8
  %call3 = call i32 @ucurr_forLocale_75(ptr noundef %2, ptr noundef nonnull %buf, i32 noundef 4, ptr noundef nonnull %localStatus)
  %3 = load i32, ptr %localStatus, align 4
  %cmp.i = icmp sgt i32 %3, 0
  br i1 %cmp.i, label %if.else7, label %if.then5

if.then5:                                         ; preds = %if.else
  store ptr %buf, ptr %agg.tmp, align 8
  invoke void @_ZN6icu_7512CurrencyUnitC1ENS_14ConstChar16PtrER10UErrorCode(ptr noundef nonnull align 8 dereferenceable(28) %agg.result, ptr noundef nonnull %agg.tmp, ptr noundef nonnull align 4 dereferenceable(4) %status)
          to label %invoke.cont unwind label %lpad

invoke.cont:                                      ; preds = %if.then5
  %4 = load ptr, ptr %agg.tmp, align 8
  call void asm sideeffect "", "rm,~{memory},~{dirflag},~{fpsr},~{flags}"(ptr %4) #11, !srcloc !7
  br label %return

lpad:                                             ; preds = %if.then5
  %5 = landingpad { ptr, i32 }
          cleanup
  %6 = load ptr, ptr %agg.tmp, align 8
  call void asm sideeffect "", "rm,~{memory},~{dirflag},~{fpsr},~{flags}"(ptr %6) #11, !srcloc !7
  resume { ptr, i32 } %5

if.else7:                                         ; preds = %if.else
  call void @_ZN6icu_7512CurrencyUnitC1Ev(ptr noundef nonnull align 8 dereferenceable(28) %agg.result)
  br label %return

return:                                           ; preds = %if.else7, %invoke.cont, %if.then
  ret void
}